target datalayout = "e-m:e-p270:32:32-p271:32:32-p272:64:64-i64:64-i128:128-f80:128-n8:16:32:64-S128"
target triple = "x86_64-pc-linux-gnu"

%"struct.icu_77::FormattedStringBuilder::Field" = type { i8 }
%"class.icu_77::FormattedStringBuilder" = type { i8, %"union.icu_77::FormattedStringBuilder::ValueOrHeapArray", %"union.icu_77::FormattedStringBuilder::ValueOrHeapArray.0", i32, i32 }
%"union.icu_77::FormattedStringBuilder::ValueOrHeapArray" = type { %struct.anon, [64 x i8] }
%struct.anon = type { ptr, i32 }
%"union.icu_77::FormattedStringBuilder::ValueOrHeapArray.0" = type { %struct.anon.1, [24 x i8] }
%struct.anon.1 = type { ptr, i32 }

@_ZN6icu_7722FormattedStringBuilderC1Ev = unnamed_addr alias void (ptr), ptr @_ZN6icu_7722FormattedStringBuilderC2Ev
@_ZN6icu_7722FormattedStringBuilderD1Ev = unnamed_addr alias void (ptr), ptr @_ZN6icu_7722FormattedStringBuilderD2Ev

; Function Attrs: inlinehint mustprogress nounwind uwtable
define linkonce_odr noundef ptr @_ZNK6icu_7722FormattedStringBuilder11getFieldPtrEv(ptr noundef nonnull align 8 dereferenceable(136) %0) #5 comdat align 2 {
  %2 = alloca ptr, align 8
  store ptr %0, ptr %2, align 8, !tbaa !3
  %3 = load ptr, ptr %2, align 8
  %4 = getelementptr inbounds nuw %"class.icu_77::FormattedStringBuilder", ptr %3, i32 0, i32 0
  %5 = load i8, ptr %4, align 8, !tbaa !8, !range !14, !noundef !15
  %6 = trunc i8 %5 to i1
  br i1 %6, label %7, label %11

7:                                                ; preds = %1
  %8 = getelementptr inbounds nuw %"class.icu_77::FormattedStringBuilder", ptr %3, i32 0, i32 2
  %9 = getelementptr inbounds nuw %struct.anon.1, ptr %8, i32 0, i32 0
  %10 = load ptr, ptr %9, align 8, !tbaa !16
  br label %14

11:                                               ; preds = %1
  %12 = getelementptr inbounds nuw %"class.icu_77::FormattedStringBuilder", ptr %3, i32 0, i32 2
  %13 = getelementptr inbounds [40 x %"struct.icu_77::FormattedStringBuilder::Field"], ptr %12, i64 0, i64 0
  br label %14

14:                                               ; preds = %11, %7
  %15 = phi ptr [ %10, %7 ], [ %13, %11 ]
  ret ptr %15
}

; Function Attrs: inlinehint mustprogress nounwind uwtable
define linkonce_odr noundef ptr @_ZN6icu_7722FormattedStringBuilder11getFieldPtrEv(ptr noundef nonnull align 8 dereferenceable(136) %0) #5 comdat align 2 {
  %2 = alloca ptr, align 8
  store ptr %0, ptr %2, align 8, !tbaa !3
  %3 = load ptr, ptr %2, align 8
  %4 = getelementptr inbounds nuw %"class.icu_77::FormattedStringBuilder", ptr %3, i32 0, i32 0
  %5 = load i8, ptr %4, align 8, !tbaa !8, !range !14, !noundef !15
  %6 = trunc i8 %5 to i1
  br i1 %6, label %7, label %11

7:                                                ; preds = %1
  %8 = getelementptr inbounds nuw %"class.icu_77::FormattedStringBuilder", ptr %3, i32 0, i32 2
  %9 = getelementptr inbounds nuw %struct.anon.1, ptr %8, i32 0, i32 0
  %10 = load ptr, ptr %9, align 8, !tbaa !16
  br label %14

11:                                               ; preds = %1
  %12 = getelementptr inbounds nuw %"class.icu_77::FormattedStringBuilder", ptr %3, i32 0, i32 2
  %13 = getelementptr inbounds [40 x %"struct.icu_77::FormattedStringBuilder::Field"], ptr %12, i64 0, i64 0
  br label %14

14:                                               ; preds = %11, %7
  %15 = phi ptr [ %10, %7 ], [ %13, %11 ]
  ret ptr %15
}

; Function Attrs: inlinehint mustprogress nounwind uwtable
define internal void @_ZN12_GLOBAL__N_112uprv_memcpy2EPvPKvm(ptr noundef %0, ptr noundef %1, i64 noundef %2) #5 {
  %4 = alloca ptr, align 8
  %5 = alloca ptr, align 8
  %6 = alloca i64, align 8
  store ptr %0, ptr %4, align 8, !tbaa !22
  store ptr %1, ptr %5, align 8, !tbaa !22
  store i64 %2, ptr %6, align 8, !tbaa !23
  %7 = load i64, ptr %6, align 8, !tbaa !23
  %8 = icmp ugt i64 %7, 0
  br i1 %8, label %9, label %15

9:                                                ; preds = %3
  br label %10

10:                                               ; preds = %9
  %11 = load ptr, ptr %4, align 8, !tbaa !22
  %12 = load ptr, ptr %5, align 8, !tbaa !22
  %13 = load i64, ptr %6, align 8, !tbaa !23
  call void @llvm.memcpy.p0.p0.i64(ptr align 1 %11, ptr align 1 %12, i64 %13, i1 false)
  br label %14

14:                                               ; preds = %10
  br label %15

15:                                               ; preds = %14, %3
  ret void
}

; Function Attrs: inlinehint mustprogress nounwind uwtable
define linkonce_odr noundef ptr @_ZNK6icu_7722FormattedStringBuilder10getCharPtrEv(ptr noundef nonnull align 8 dereferenceable(136) %0) #5 comdat align 2 {
  %2 = alloca ptr, align 8
  store ptr %0, ptr %2, align 8, !tbaa !3
  %3 = load ptr, ptr %2, align 8
  %4 = getelementptr inbounds nuw %"class.icu_77::FormattedStringBuilder", ptr %3, i32 0, i32 0
  %5 = load i8, ptr %4, align 8, !tbaa !8, !range !14, !noundef !15
  %6 = trunc i8 %5 to i1
  br i1 %6, label %7, label %11

7:                                                ; preds = %1
  %8 = getelementptr inbounds nuw %"class.icu_77::FormattedStringBuilder", ptr %3, i32 0, i32 1
  %9 = getelementptr inbounds nuw %struct.anon, ptr %8, i32 0, i32 0
  %10 = load ptr, ptr %9, align 8, !tbaa !16
  br label %14

11:                                               ; preds = %1
  %12 = getelementptr inbounds nuw %"class.icu_77::FormattedStringBuilder", ptr %3, i32 0, i32 1
  %13 = getelementptr inbounds [40 x i16], ptr %12, i64 0, i64 0
  br label %14

14:                                               ; preds = %11, %7
  %15 = phi ptr [ %10, %7 ], [ %13, %11 ]
  ret ptr %15
}

; Function Attrs: inlinehint mustprogress nounwind uwtable
define linkonce_odr noundef ptr @_ZN6icu_7722FormattedStringBuilder10getCharPtrEv(ptr noundef nonnull align 8 dereferenceable(136) %0) #5 comdat align 2 {
  %2 = alloca ptr, align 8
  store ptr %0, ptr %2, align 8, !tbaa !3
  %3 = load ptr, ptr %2, align 8
  %4 = getelementptr inbounds nuw %"class.icu_77::FormattedStringBuilder", ptr %3, i32 0, i32 0
  %5 = load i8, ptr %4, align 8, !tbaa !8, !range !14, !noundef !15
  %6 = trunc i8 %5 to i1
  br i1 %6, label %7, label %11

7:                                                ; preds = %1
  %8 = getelementptr inbounds nuw %"class.icu_77::FormattedStringBuilder", ptr %3, i32 0, i32 1
  %9 = getelementptr inbounds nuw %struct.anon, ptr %8, i32 0, i32 0
  %10 = load ptr, ptr %9, align 8, !tbaa !16
  br label %14

11:                                               ; preds = %1
  %12 = getelementptr inbounds nuw %"class.icu_77::FormattedStringBuilder", ptr %3, i32 0, i32 1
  %13 = getelementptr inbounds [40 x i16], ptr %12, i64 0, i64 0
  br label %14

14:                                               ; preds = %11, %7
  %15 = phi ptr [ %10, %7 ], [ %13, %11 ]
  ret ptr %15
}

; Function Attrs: inlinehint mustprogress nounwind uwtable
define linkonce_odr noundef i32 @_ZNK6icu_7722FormattedStringBuilder11getCapacityEv(ptr noundef nonnull align 8 dereferenceable(136) %0) #5 comdat align 2 {
  %2 = alloca ptr, align 8
  store ptr %0, ptr %2, align 8, !tbaa !3
  %3 = load ptr, ptr %2, align 8
  %4 = getelementptr inbounds nuw %"class.icu_77::FormattedStringBuilder", ptr %3, i32 0, i32 0
  %5 = load i8, ptr %4, align 8, !tbaa !8, !range !14, !noundef !15
  %6 = trunc i8 %5 to i1
  br i1 %6, label %7, label %11

7:                                                ; preds = %1
  %8 = getelementptr inbounds nuw %"class.icu_77::FormattedStringBuilder", ptr %3, i32 0, i32 1
  %9 = getelementptr inbounds nuw %struct.anon, ptr %8, i32 0, i32 1
  %10 = load i32, ptr %9, align 8, !tbaa !16
  br label %12

11:                                               ; preds = %1
  br label %12

12:                                               ; preds = %11, %7
  %13 = phi i32 [ %10, %7 ], [ 40, %11 ]
  ret i32 %13
}

; Function Attrs: mustprogress uwtable
define noundef nonnull align 8 dereferenceable(136) ptr @_ZN6icu_7722FormattedStringBuilderaSERKS0_(ptr noundef nonnull align 8 dereferenceable(136) %0, ptr noundef nonnull align 8 dereferenceable(136) %1) #3 align 2 personality ptr @__gxx_personality_v0 {
  %3 = alloca ptr, align 8
  %4 = alloca ptr, align 8
  %5 = alloca ptr, align 8
  %6 = alloca i32, align 4
  %7 = alloca ptr, align 8
  %8 = alloca ptr, align 8
  %9 = alloca %"class.icu_77::FormattedStringBuilder", align 8
  %10 = alloca ptr, align 8
  %11 = alloca i32, align 4
  %12 = alloca i32, align 4
  store ptr %0, ptr %4, align 8, !tbaa !3
  store ptr %1, ptr %5, align 8, !tbaa !3
  %13 = load ptr, ptr %4, align 8
  %14 = load ptr, ptr %5, align 8, !tbaa !3
  %15 = icmp eq ptr %13, %14
  br i1 %15, label %16, label %17

16:                                               ; preds = %2
  store ptr %13, ptr %3, align 8
  br label %96

17:                                               ; preds = %2
  %18 = getelementptr inbounds nuw %"class.icu_77::FormattedStringBuilder", ptr %13, i32 0, i32 0
  %19 = load i8, ptr %18, align 8, !tbaa !8, !range !14, !noundef !15
  %20 = trunc i8 %19 to i1
  br i1 %20, label %21, label %29

21:                                               ; preds = %17
  %22 = getelementptr inbounds nuw %"class.icu_77::FormattedStringBuilder", ptr %13, i32 0, i32 1
  %23 = getelementptr inbounds nuw %struct.anon, ptr %22, i32 0, i32 0
  %24 = load ptr, ptr %23, align 8, !tbaa !16
  call void @uprv_free_77(ptr noundef %24)
  %25 = getelementptr inbounds nuw %"class.icu_77::FormattedStringBuilder", ptr %13, i32 0, i32 2
  %26 = getelementptr inbounds nuw %struct.anon.1, ptr %25, i32 0, i32 0
  %27 = load ptr, ptr %26, align 8, !tbaa !16
  call void @uprv_free_77(ptr noundef %27)
  %28 = getelementptr inbounds nuw %"class.icu_77::FormattedStringBuilder", ptr %13, i32 0, i32 0
  store i8 0, ptr %28, align 8, !tbaa !8
  br label %29

29:                                               ; preds = %21, %17
  call void @llvm.lifetime.start.p0(i64 4, ptr %6) #11
  %30 = load ptr, ptr %5, align 8, !tbaa !3
  %31 = call noundef i32 @_ZNK6icu_7722FormattedStringBuilder11getCapacityEv(ptr noundef nonnull align 8 dereferenceable(136) %30)
  store i32 %31, ptr %6, align 4, !tbaa !17
  %32 = load i32, ptr %6, align 4, !tbaa !17
  %33 = icmp sgt i32 %32, 40
  br i1 %33, label %34, label %74

34:                                               ; preds = %29
  call void @llvm.lifetime.start.p0(i64 8, ptr %7) #11
  %35 = load i32, ptr %6, align 4, !tbaa !17
  %36 = sext i32 %35 to i64
  %37 = mul i64 2, %36
  %38 = call noalias ptr @uprv_malloc_77(i64 noundef %37) #12
  store ptr %38, ptr %7, align 8, !tbaa !18
  call void @llvm.lifetime.start.p0(i64 8, ptr %8) #11
  %39 = load i32, ptr %6, align 4, !tbaa !17
  %40 = sext i32 %39 to i64
  %41 = mul i64 1, %40
  %42 = call noalias ptr @uprv_malloc_77(i64 noundef %41) #12
  store ptr %42, ptr %8, align 8, !tbaa !20
  %43 = load ptr, ptr %7, align 8, !tbaa !18
  %44 = icmp eq ptr %43, null
  br i1 %44, label %48, label %45

45:                                               ; preds = %34
  %46 = load ptr, ptr %8, align 8, !tbaa !20
  %47 = icmp eq ptr %46, null
  br i1 %47, label %48, label %57

48:                                               ; preds = %45, %34
  %49 = load ptr, ptr %7, align 8, !tbaa !18
  call void @uprv_free_77(ptr noundef %49)
  %50 = load ptr, ptr %8, align 8, !tbaa !20
  call void @uprv_free_77(ptr noundef %50)
  call void @llvm.lifetime.start.p0(i64 136, ptr %9) #11
  call void @_ZN6icu_7722FormattedStringBuilderC1Ev(ptr noundef nonnull align 8 dereferenceable(136) %9)
  %51 = invoke noundef nonnull align 8 dereferenceable(136) ptr @_ZN6icu_7722FormattedStringBuilderaSERKS0_(ptr noundef nonnull align 8 dereferenceable(136) %13, ptr noundef nonnull align 8 dereferenceable(136) %9)
          to label %52 unwind label %53

52:                                               ; preds = %48
  call void @_ZN6icu_7722FormattedStringBuilderD1Ev(ptr noundef nonnull align 8 dereferenceable(136) %9) #11
  call void @llvm.lifetime.end.p0(i64 136, ptr %9) #11
  store ptr %13, ptr %3, align 8
  store i32 1, ptr %12, align 4
  br label %71

53:                                               ; preds = %48
  %54 = landingpad { ptr, i32 }
          cleanup
  %55 = extractvalue { ptr, i32 } %54, 0
  store ptr %55, ptr %10, align 8
  %56 = extractvalue { ptr, i32 } %54, 1
  store i32 %56, ptr %11, align 4
  call void @_ZN6icu_7722FormattedStringBuilderD1Ev(ptr noundef nonnull align 8 dereferenceable(136) %9) #11
  call void @llvm.lifetime.end.p0(i64 136, ptr %9) #11
  call void @llvm.lifetime.end.p0(i64 8, ptr %8) #11
  call void @llvm.lifetime.end.p0(i64 8, ptr %7) #11
  call void @llvm.lifetime.end.p0(i64 4, ptr %6) #11
  br label %98

57:                                               ; preds = %45
  %58 = getelementptr inbounds nuw %"class.icu_77::FormattedStringBuilder", ptr %13, i32 0, i32 0
  store i8 1, ptr %58, align 8, !tbaa !8
  %59 = load i32, ptr %6, align 4, !tbaa !17
  %60 = getelementptr inbounds nuw %"class.icu_77::FormattedStringBuilder", ptr %13, i32 0, i32 1
  %61 = getelementptr inbounds nuw %struct.anon, ptr %60, i32 0, i32 1
  store i32 %59, ptr %61, align 8, !tbaa !16
  %62 = load ptr, ptr %7, align 8, !tbaa !18
  %63 = getelementptr inbounds nuw %"class.icu_77::FormattedStringBuilder", ptr %13, i32 0, i32 1
  %64 = getelementptr inbounds nuw %struct.anon, ptr %63, i32 0, i32 0
  store ptr %62, ptr %64, align 8, !tbaa !16
  %65 = load i32, ptr %6, align 4, !tbaa !17
  %66 = getelementptr inbounds nuw %"class.icu_77::FormattedStringBuilder", ptr %13, i32 0, i32 2
  %67 = getelementptr inbounds nuw %struct.anon.1, ptr %66, i32 0, i32 1
  store i32 %65, ptr %67, align 8, !tbaa !16
  %68 = load ptr, ptr %8, align 8, !tbaa !20
  %69 = getelementptr inbounds nuw %"class.icu_77::FormattedStringBuilder", ptr %13, i32 0, i32 2
  %70 = getelementptr inbounds nuw %struct.anon.1, ptr %69, i32 0, i32 0
  store ptr %68, ptr %70, align 8, !tbaa !16
  store i32 0, ptr %12, align 4
  br label %71

71:                                               ; preds = %57, %52
  call void @llvm.lifetime.end.p0(i64 8, ptr %8) #11
  call void @llvm.lifetime.end.p0(i64 8, ptr %7) #11
  %72 = load i32, ptr %12, align 4
  switch i32 %72, label %95 [
    i32 0, label %73
  ]

73:                                               ; preds = %71
  br label %74

74:                                               ; preds = %73, %29
  %75 = call noundef ptr @_ZN6icu_7722FormattedStringBuilder10getCharPtrEv(ptr noundef nonnull align 8 dereferenceable(136) %13)
  %76 = load ptr, ptr %5, align 8, !tbaa !3
  %77 = call noundef ptr @_ZNK6icu_7722FormattedStringBuilder10getCharPtrEv(ptr noundef nonnull align 8 dereferenceable(136) %76)
  %78 = load i32, ptr %6, align 4, !tbaa !17
  %79 = sext i32 %78 to i64
  %80 = mul i64 2, %79
  call void @_ZN12_GLOBAL__N_112uprv_memcpy2EPvPKvm(ptr noundef %75, ptr noundef %77, i64 noundef %80)
  %81 = call noundef ptr @_ZN6icu_7722FormattedStringBuilder11getFieldPtrEv(ptr noundef nonnull align 8 dereferenceable(136) %13)
  %82 = load ptr, ptr %5, align 8, !tbaa !3
  %83 = call noundef ptr @_ZNK6icu_7722FormattedStringBuilder11getFieldPtrEv(ptr noundef nonnull align 8 dereferenceable(136) %82)
  %84 = load i32, ptr %6, align 4, !tbaa !17
  %85 = sext i32 %84 to i64
  %86 = mul i64 1, %85
  call void @_ZN12_GLOBAL__N_112uprv_memcpy2EPvPKvm(ptr noundef %81, ptr noundef %83, i64 noundef %86)
  %87 = load ptr, ptr %5, align 8, !tbaa !3
  %88 = getelementptr inbounds nuw %"class.icu_77::FormattedStringBuilder", ptr %87, i32 0, i32 3
  %89 = load i32, ptr %88, align 8, !tbaa !12
  %90 = getelementptr inbounds nuw %"class.icu_77::FormattedStringBuilder", ptr %13, i32 0, i32 3
  store i32 %89, ptr %90, align 8, !tbaa !12
  %91 = load ptr, ptr %5, align 8, !tbaa !3
  %92 = getelementptr inbounds nuw %"class.icu_77::FormattedStringBuilder", ptr %91, i32 0, i32 4
  %93 = load i32, ptr %92, align 4, !tbaa !13
  %94 = getelementptr inbounds nuw %"class.icu_77::FormattedStringBuilder", ptr %13, i32 0, i32 4
  store i32 %93, ptr %94, align 4, !tbaa !13
  store ptr %13, ptr %3, align 8
  store i32 1, ptr %12, align 4
  br label %95

95:                                               ; preds = %74, %71
  call void @llvm.lifetime.end.p0(i64 4, ptr %6) #11
  br label %96

96:                                               ; preds = %95, %16
  %97 = load ptr, ptr %3, align 8
  ret ptr %97

98:                                               ; preds = %53
  %99 = load ptr, ptr %10, align 8
  %100 = load i32, ptr %11, align 4
  %101 = insertvalue { ptr, i32 } poison, ptr %99, 0
  %102 = insertvalue { ptr, i32 } %101, i32 %100, 1
  resume { ptr, i32 } %102
}