; Function Attrs: mustprogress uwtable
define noundef nonnull align 8 dereferenceable(136) ptr @_ZN6icu_7722FormattedStringBuilderaSERKS0_(ptr noundef nonnull returned align 8 dereferenceable(136) %0, ptr noundef nonnull readonly align 8 dereferenceable(136) %1) local_unnamed_addr #5 align 2 personality ptr @__gxx_personality_v0 {
  %3 = alloca %"class.icu_77::FormattedStringBuilder", align 8
  %4 = icmp eq ptr %0, %1
  br i1 %4, label %63, label %5

5:                                                ; preds = %2
  %6 = load i8, ptr %0, align 8, !tbaa !3, !range !11, !noundef !12
  %7 = trunc nuw i8 %6 to i1
  br i1 %7, label %8, label %13

8:                                                ; preds = %5
  %9 = getelementptr inbounds nuw i8, ptr %0, i64 8
  %10 = load ptr, ptr %9, align 8, !tbaa !13
  tail call void @uprv_free_77(ptr noundef %10)
  %11 = getelementptr inbounds nuw i8, ptr %0, i64 88
  %12 = load ptr, ptr %11, align 8, !tbaa !13
  tail call void @uprv_free_77(ptr noundef %12)
  store i8 0, ptr %0, align 8, !tbaa !3
  br label %13

13:                                               ; preds = %8, %5
  %14 = load i8, ptr %1, align 8, !tbaa !3, !range !11, !noundef !12
  %15 = trunc nuw i8 %14 to i1
  %16 = getelementptr inbounds nuw i8, ptr %1, i64 16
  %17 = load i32, ptr %16, align 8
  %18 = select i1 %15, i32 %17, i32 40
  %19 = icmp sgt i32 %18, 40
  br i1 %19, label %20, label %36

20:                                               ; preds = %13
  %21 = zext nneg i32 %18 to i64
  %22 = shl nuw nsw i64 %21, 1
  %23 = tail call noalias ptr @uprv_malloc_77(i64 noundef %22) #16
  %24 = tail call noalias ptr @uprv_malloc_77(i64 noundef %21) #16
  %25 = icmp ne ptr %23, null
  %26 = icmp ne ptr %24, null
  %or.cond.not = select i1 %25, i1 %26, i1 false
  br i1 %or.cond.not, label %.thread33, label %27

27:                                               ; preds = %20
  tail call void @uprv_free_77(ptr noundef %23)
  tail call void @uprv_free_77(ptr noundef %24)
  call void @llvm.lifetime.start.p0(i64 136, ptr nonnull %3) #15
  call void @_ZN6icu_7722FormattedStringBuilderC1Ev(ptr noundef nonnull align 8 dereferenceable(136) %3)
  %28 = invoke noundef nonnull align 8 dereferenceable(136) ptr @_ZN6icu_7722FormattedStringBuilderaSERKS0_(ptr noundef nonnull align 8 dereferenceable(136) %0, ptr noundef nonnull align 8 dereferenceable(136) %3)
          to label %35 unwind label %29

29:                                               ; preds = %27
  %30 = landingpad { ptr, i32 }
          cleanup
  call void @_ZN6icu_7722FormattedStringBuilderD1Ev(ptr noundef nonnull align 8 dereferenceable(136) %3) #15
  call void @llvm.lifetime.end.p0(i64 136, ptr nonnull %3) #15
  resume { ptr, i32 } %30

.thread33:                                        ; preds = %20
  store i8 1, ptr %0, align 8, !tbaa !3
  %31 = getelementptr inbounds nuw i8, ptr %0, i64 8
  %32 = getelementptr inbounds nuw i8, ptr %0, i64 16
  store i32 %18, ptr %32, align 8, !tbaa !13
  store ptr %23, ptr %31, align 8, !tbaa !13
  %33 = getelementptr inbounds nuw i8, ptr %0, i64 88
  %34 = getelementptr inbounds nuw i8, ptr %0, i64 96
  store i32 %18, ptr %34, align 8, !tbaa !13
  store ptr %24, ptr %33, align 8, !tbaa !13
  br label %_ZN12_GLOBAL__N_112uprv_memcpy2EPvPKvm.exit

35:                                               ; preds = %27
  call void @_ZN6icu_7722FormattedStringBuilderD1Ev(ptr noundef nonnull align 8 dereferenceable(136) %3) #15
  call void @llvm.lifetime.end.p0(i64 136, ptr nonnull %3) #15
  br label %63

36:                                               ; preds = %13
  %cond = icmp eq i32 %18, 0
  br i1 %cond, label %_ZN12_GLOBAL__N_112uprv_memcpy2EPvPKvm.exit32, label %_ZN12_GLOBAL__N_112uprv_memcpy2EPvPKvm.exit

_ZN12_GLOBAL__N_112uprv_memcpy2EPvPKvm.exit:      ; preds = %.thread33, %36
  %37 = sext i32 %18 to i64
  %38 = shl nsw i64 %37, 1
  %39 = load i8, ptr %1, align 8, !tbaa !3, !range !11, !noundef !12
  %40 = trunc nuw i8 %39 to i1
  %41 = getelementptr inbounds nuw i8, ptr %1, i64 8
  %42 = load ptr, ptr %41, align 8
  %43 = select i1 %40, ptr %42, ptr %41
  %44 = getelementptr inbounds nuw i8, ptr %0, i64 8
  %45 = load ptr, ptr %44, align 8
  %46 = select i1 %19, ptr %45, ptr %44
  tail call void @llvm.memcpy.p0.p0.i64(ptr align 1 %46, ptr readonly align 1 %43, i64 range(i64 -4294967296, 4294967295) %38, i1 false)
  %47 = load i8, ptr %1, align 8, !tbaa !3, !range !11, !noundef !12
  %48 = trunc nuw i8 %47 to i1
  %49 = getelementptr inbounds nuw i8, ptr %1, i64 88
  %50 = load ptr, ptr %49, align 8
  %51 = select i1 %48, ptr %50, ptr %49
  %52 = load i8, ptr %0, align 8, !tbaa !3, !range !11, !noundef !12
  %53 = trunc nuw i8 %52 to i1
  %54 = getelementptr inbounds nuw i8, ptr %0, i64 88
  %55 = load ptr, ptr %54, align 8
  %56 = select i1 %53, ptr %55, ptr %54
  tail call void @llvm.memcpy.p0.p0.i64(ptr align 1 %56, ptr readonly align 1 %51, i64 range(i64 -4294967296, 4294967295) %37, i1 false)
  br label %_ZN12_GLOBAL__N_112uprv_memcpy2EPvPKvm.exit32

_ZN12_GLOBAL__N_112uprv_memcpy2EPvPKvm.exit32:    ; preds = %36, %_ZN12_GLOBAL__N_112uprv_memcpy2EPvPKvm.exit
  %57 = getelementptr inbounds nuw i8, ptr %1, i64 128
  %58 = load i32, ptr %57, align 8, !tbaa !9
  %59 = getelementptr inbounds nuw i8, ptr %0, i64 128
  store i32 %58, ptr %59, align 8, !tbaa !9
  %60 = getelementptr inbounds nuw i8, ptr %1, i64 132
  %61 = load i32, ptr %60, align 4, !tbaa !10
  %62 = getelementptr inbounds nuw i8, ptr %0, i64 132
  store i32 %61, ptr %62, align 4, !tbaa !10
  br label %63

63:                                               ; preds = %35, %_ZN12_GLOBAL__N_112uprv_memcpy2EPvPKvm.exit32, %2
  ret ptr %0
}